; Function Attrs: mustprogress uwtable
define internal fastcc void @_ZN12_GLOBAL__N_114pow2absComplexERKN2cv11_InputArrayE(ptr dead_on_unwind noalias nonnull writable align 8 %0, ptr noundef nonnull align 8 dereferenceable(24) %1) unnamed_addr #3 personality ptr @__gxx_personality_v0 {
  %3 = alloca %"class.cv::Mat", align 8
  %4 = alloca [2 x %"class.cv::Mat"], align 16
  %5 = alloca %"class.cv::_InputArray", align 8
  %6 = alloca %"class.cv::_InputArray", align 8
  %7 = alloca %"class.cv::_OutputArray", align 8
  %8 = alloca %"class.cv::_InputArray", align 8
  %9 = alloca %"class.cv::_OutputArray", align 8
  call void @llvm.lifetime.start.p0(i64 96, ptr nonnull %3) #16
  %10 = tail call noundef i32 @_ZNK2cv11_InputArray4kindEv(ptr noundef nonnull align 8 dereferenceable(24) %1), !noalias !98
  %11 = icmp eq i32 %10, 65536
  br i1 %11, label %12, label %15

12:                                               ; preds = %2
  %13 = getelementptr inbounds nuw i8, ptr %1, i64 8
  %14 = load ptr, ptr %13, align 8, !tbaa !6, !noalias !98
  call void @_ZN2cv3MatC1ERKS0_(ptr noundef nonnull align 8 dereferenceable(96) %3, ptr noundef nonnull align 8 dereferenceable(96) %14)
  br label %_ZNK2cv11_InputArray6getMatEi.exit

15:                                               ; preds = %2
  call void @_ZNK2cv11_InputArray7getMat_Ei(ptr dead_on_unwind nonnull writable sret(%"class.cv::Mat") align 8 %3, ptr noundef nonnull align 8 dereferenceable(24) %1, i32 noundef -1)
  br label %_ZNK2cv11_InputArray6getMatEi.exit

_ZNK2cv11_InputArray6getMatEi.exit:               ; preds = %12, %15
  call void @llvm.lifetime.start.p0(i64 192, ptr nonnull %4) #16
  br label %16

16:                                               ; preds = %16, %_ZNK2cv11_InputArray6getMatEi.exit
  %.idx = phi i64 [ 0, %_ZNK2cv11_InputArray6getMatEi.exit ], [ %.add, %16 ]
  %.ptr = getelementptr inbounds nuw i8, ptr %4, i64 %.idx
  call void @_ZN2cv3MatC1Ev(ptr noundef nonnull align 8 dereferenceable(96) %.ptr) #16
  %.add = add nuw nsw i64 %.idx, 96
  %17 = icmp eq i64 %.add, 192
  br i1 %17, label %18, label %16

18:                                               ; preds = %16
  %19 = getelementptr inbounds nuw i8, ptr %4, i64 192
  invoke void @_ZN2cv5splitERKNS_3MatEPS0_(ptr noundef nonnull align 8 dereferenceable(96) %3, ptr noundef nonnull %4)
          to label %20 unwind label %37

20:                                               ; preds = %18
  call void @_ZN2cv3MatC1Ev(ptr noundef nonnull align 8 dereferenceable(96) %0) #16
  call void @llvm.lifetime.start.p0(i64 24, ptr nonnull %5) #16
  %21 = getelementptr inbounds nuw i8, ptr %5, i64 16
  store i32 0, ptr %21, align 8, !tbaa !32
  %22 = getelementptr inbounds nuw i8, ptr %5, i64 20
  store i32 0, ptr %22, align 4, !tbaa !33
  store i32 16842752, ptr %5, align 8, !tbaa !31
  %23 = getelementptr inbounds nuw i8, ptr %5, i64 8
  store ptr %4, ptr %23, align 8, !tbaa !6
  call void @llvm.lifetime.start.p0(i64 24, ptr nonnull %6) #16
  %24 = getelementptr inbounds nuw i8, ptr %4, i64 96
  %25 = getelementptr inbounds nuw i8, ptr %6, i64 16
  store i32 0, ptr %25, align 8, !tbaa !32
  %26 = getelementptr inbounds nuw i8, ptr %6, i64 20
  store i32 0, ptr %26, align 4, !tbaa !33
  store i32 16842752, ptr %6, align 8, !tbaa !31
  %27 = getelementptr inbounds nuw i8, ptr %6, i64 8
  store ptr %24, ptr %27, align 8, !tbaa !6
  call void @llvm.lifetime.start.p0(i64 24, ptr nonnull %7) #16
  %28 = getelementptr inbounds nuw i8, ptr %7, i64 8
  %29 = getelementptr inbounds nuw i8, ptr %7, i64 16
  store i64 0, ptr %29, align 8
  store i32 33619968, ptr %7, align 8, !tbaa !31
  store ptr %0, ptr %28, align 8, !tbaa !6
  invoke void @_ZN2cv9magnitudeERKNS_11_InputArrayES2_RKNS_12_OutputArrayE(ptr noundef nonnull align 8 dereferenceable(24) %5, ptr noundef nonnull align 8 dereferenceable(24) %6, ptr noundef nonnull align 8 dereferenceable(24) %7)
          to label %30 unwind label %39

30:                                               ; preds = %20
  call void @llvm.lifetime.end.p0(i64 24, ptr nonnull %7) #16
  call void @llvm.lifetime.end.p0(i64 24, ptr nonnull %6) #16
  call void @llvm.lifetime.end.p0(i64 24, ptr nonnull %5) #16
  call void @llvm.lifetime.start.p0(i64 24, ptr nonnull %8) #16
  %31 = getelementptr inbounds nuw i8, ptr %8, i64 16
  store i32 0, ptr %31, align 8, !tbaa !32
  %32 = getelementptr inbounds nuw i8, ptr %8, i64 20
  store i32 0, ptr %32, align 4, !tbaa !33
  store i32 16842752, ptr %8, align 8, !tbaa !31
  %33 = getelementptr inbounds nuw i8, ptr %8, i64 8
  store ptr %0, ptr %33, align 8, !tbaa !6
  call void @llvm.lifetime.start.p0(i64 24, ptr nonnull %9) #16
  %34 = getelementptr inbounds nuw i8, ptr %9, i64 8
  %35 = getelementptr inbounds nuw i8, ptr %9, i64 16
  store i64 0, ptr %35, align 8
  store i32 33619968, ptr %9, align 8, !tbaa !31
  store ptr %0, ptr %34, align 8, !tbaa !6
  invoke void @_ZN2cv3powERKNS_11_InputArrayEdRKNS_12_OutputArrayE(ptr noundef nonnull align 8 dereferenceable(24) %8, double noundef 2.000000e+00, ptr noundef nonnull align 8 dereferenceable(24) %9)
          to label %36 unwind label %41

36:                                               ; preds = %30
  call void @llvm.lifetime.end.p0(i64 24, ptr nonnull %9) #16
  call void @llvm.lifetime.end.p0(i64 24, ptr nonnull %8) #16
  br label %44

37:                                               ; preds = %18
  %38 = landingpad { ptr, i32 }
          cleanup
  br label %49

39:                                               ; preds = %20
  %40 = landingpad { ptr, i32 }
          cleanup
  call void @llvm.lifetime.end.p0(i64 24, ptr nonnull %7) #16
  call void @llvm.lifetime.end.p0(i64 24, ptr nonnull %6) #16
  call void @llvm.lifetime.end.p0(i64 24, ptr nonnull %5) #16
  br label %43

41:                                               ; preds = %30
  %42 = landingpad { ptr, i32 }
          cleanup
  call void @llvm.lifetime.end.p0(i64 24, ptr nonnull %9) #16
  call void @llvm.lifetime.end.p0(i64 24, ptr nonnull %8) #16
  br label %43

43:                                               ; preds = %41, %39
  %.pn17.pn.pn = phi { ptr, i32 } [ %42, %41 ], [ %40, %39 ]
  call void @_ZN2cv3MatD1Ev(ptr noundef nonnull align 8 dereferenceable(96) %0) #16
  br label %49

44:                                               ; preds = %44, %36
  %45 = phi ptr [ %19, %36 ], [ %46, %44 ]
  %46 = getelementptr inbounds i8, ptr %45, i64 -96
  call void @_ZN2cv3MatD1Ev(ptr noundef nonnull align 8 dereferenceable(96) %46) #16
  %47 = icmp eq ptr %46, %4
  br i1 %47, label %48, label %44

48:                                               ; preds = %44
  call void @llvm.lifetime.end.p0(i64 192, ptr nonnull %4) #16
  call void @_ZN2cv3MatD1Ev(ptr noundef nonnull align 8 dereferenceable(96) %3) #16
  call void @llvm.lifetime.end.p0(i64 96, ptr nonnull %3) #16
  ret void

49:                                               ; preds = %43, %37
  %.pn17.pn.pn.pn = phi { ptr, i32 } [ %.pn17.pn.pn, %43 ], [ %38, %37 ]
  br label %50

50:                                               ; preds = %50, %49
  %51 = phi ptr [ %19, %49 ], [ %52, %50 ]
  %52 = getelementptr inbounds i8, ptr %51, i64 -96
  call void @_ZN2cv3MatD1Ev(ptr noundef nonnull align 8 dereferenceable(96) %52) #16
  %53 = icmp eq ptr %52, %4
  br i1 %53, label %54, label %50

54:                                               ; preds = %50
  call void @llvm.lifetime.end.p0(i64 192, ptr nonnull %4) #16
  call void @_ZN2cv3MatD1Ev(ptr noundef nonnull align 8 dereferenceable(96) %3) #16
  call void @llvm.lifetime.end.p0(i64 96, ptr nonnull %3) #16
  resume { ptr, i32 } %.pn17.pn.pn.pn
}